target datalayout = "e-m:e-p270:32:32-p271:32:32-p272:64:64-i64:64-i128:128-f80:128-n8:16:32:64-S128"
target triple = "x86_64-pc-linux-gnu"

%class.AccessFlags = type { i32 }
%class.ClassFileParser = type { ptr, ptr, ptr, i8, i8, i32, ptr, ptr, ptr, ptr, ptr, ptr, ptr, i16, ptr, ptr, ptr, ptr, ptr, ptr, ptr, ptr, ptr, ptr, ptr, ptr, ptr, ptr, ptr, ptr, ptr, [128 x i8], i32, i32, i32, %class.Handle, %class.AccessFlags, i32, i16, i8, i32, ptr, i16, i16, i16, i16, i16, i16, i16, i16, i8, i8, i8, i8, i8, i8, i8, i8, i8, i32 }
%class.Handle = type { ptr }
%class.ThreadShadow = type <{ ptr, ptr, ptr, i32, [4 x i8] }>
%class.Symbol = type { i32, i16, [2 x i8] }

@.str.17 = private unnamed_addr constant [7 x i8] c"Method\00", align 1

; Function Attrs: mustprogress nounwind uwtable
define linkonce_odr hidden noundef i64 @_Z13pointer_deltaPVKvS0_m(ptr noundef %0, ptr noundef %1, i64 noundef %2) #1 comdat {
  %4 = alloca ptr, align 8
  %5 = alloca ptr, align 8
  %6 = alloca i64, align 8
  store ptr %0, ptr %4, align 8
  store ptr %1, ptr %5, align 8
  store i64 %2, ptr %6, align 8
  %7 = load ptr, ptr %4, align 8
  %8 = ptrtoint ptr %7 to i64
  %9 = load ptr, ptr %5, align 8
  %10 = ptrtoint ptr %9 to i64
  %11 = sub i64 %8, %10
  %12 = load i64, ptr %6, align 8
  %13 = udiv i64 %11, %12
  ret i64 %13
}

; Function Attrs: mustprogress nounwind uwtable
define linkonce_odr hidden noundef i32 @_ZNK6Symbol6lengthEv(ptr noundef nonnull align 4 dereferenceable(8) %0) #1 comdat align 2 {
  %2 = alloca ptr, align 8
  store ptr %0, ptr %2, align 8
  %3 = load ptr, ptr %2, align 8
  %4 = getelementptr inbounds %class.Symbol, ptr %3, i32 0, i32 1
  %5 = load i16, ptr %4, align 4
  %6 = zext i16 %5 to i32
  ret i32 %6
}

; Function Attrs: mustprogress nounwind uwtable
define linkonce_odr hidden noundef ptr @_ZNK6Symbol4baseEv(ptr noundef nonnull align 4 dereferenceable(8) %0) #1 comdat align 2 {
  %2 = alloca ptr, align 8
  store ptr %0, ptr %2, align 8
  %3 = load ptr, ptr %2, align 8
  %4 = getelementptr inbounds %class.Symbol, ptr %3, i32 0, i32 2
  %5 = getelementptr inbounds [2 x i8], ptr %4, i64 0, i64 0
  ret ptr %5
}

; Function Attrs: mustprogress nounwind uwtable
define linkonce_odr hidden noundef i32 @_Z20pointer_delta_as_intIcEiPVKT_S2_(ptr noundef %0, ptr noundef %1) #1 comdat {
  %3 = alloca ptr, align 8
  %4 = alloca ptr, align 8
  %5 = alloca i64, align 8
  store ptr %0, ptr %3, align 8
  store ptr %1, ptr %4, align 8
  %6 = load ptr, ptr %3, align 8
  %7 = load ptr, ptr %4, align 8
  %8 = call noundef i64 @_Z13pointer_deltaPVKvS0_m(ptr noundef %6, ptr noundef %7, i64 noundef 1)
  store i64 %8, ptr %5, align 8
  %9 = load i64, ptr %5, align 8
  %10 = trunc i64 %9 to i32
  ret i32 %10
}

; Function Attrs: mustprogress nounwind uwtable
define linkonce_odr hidden noundef zeroext i1 @_ZNK12ThreadShadow21has_pending_exceptionEv(ptr noundef nonnull align 8 dereferenceable(28) %0) #1 comdat align 2 {
  %2 = alloca ptr, align 8
  store ptr %0, ptr %2, align 8
  %3 = load ptr, ptr %2, align 8
  %4 = getelementptr inbounds %class.ThreadShadow, ptr %3, i32 0, i32 1
  %5 = load ptr, ptr %4, align 8
  %6 = icmp ne ptr %5, null
  ret i1 %6
}

; Function Attrs: mustprogress nounwind uwtable
define linkonce_odr hidden noundef i32 @_ZNK6Symbol11utf8_lengthEv(ptr noundef nonnull align 4 dereferenceable(8) %0) #1 comdat align 2 {
  %2 = alloca ptr, align 8
  store ptr %0, ptr %2, align 8
  %3 = load ptr, ptr %2, align 8
  %4 = call noundef i32 @_ZNK6Symbol6lengthEv(ptr noundef nonnull align 4 dereferenceable(8) %3)
  ret i32 %4
}

; Function Attrs: mustprogress nounwind uwtable
define linkonce_odr hidden noundef ptr @_ZNK6Symbol5bytesEv(ptr noundef nonnull align 4 dereferenceable(8) %0) #1 comdat align 2 {
  %2 = alloca ptr, align 8
  store ptr %0, ptr %2, align 8
  %3 = load ptr, ptr %2, align 8
  %4 = call noundef ptr @_ZNK6Symbol4baseEv(ptr noundef nonnull align 4 dereferenceable(8) %3)
  ret ptr %4
}

; Function Attrs: mustprogress nounwind uwtable
define hidden noundef i32 @_ZNK15ClassFileParser29verify_legal_method_signatureEPK6SymbolS2_P10JavaThread(ptr noundef nonnull align 8 dereferenceable(440) %0, ptr noundef %1, ptr noundef %2, ptr noundef %3) #1 align 2 {
  %5 = alloca i32, align 4
  %6 = alloca ptr, align 8
  %7 = alloca ptr, align 8
  %8 = alloca ptr, align 8
  %9 = alloca ptr, align 8
  %10 = alloca i32, align 4
  %11 = alloca ptr, align 8
  %12 = alloca i32, align 4
  %13 = alloca ptr, align 8
  store ptr %0, ptr %6, align 8
  store ptr %1, ptr %7, align 8
  store ptr %2, ptr %8, align 8
  store ptr %3, ptr %9, align 8
  %14 = load ptr, ptr %6, align 8
  %15 = getelementptr inbounds %class.ClassFileParser, ptr %14, i32 0, i32 50
  %16 = load i8, ptr %15, align 8
  %17 = trunc i8 %16 to i1
  br i1 %17, label %19, label %18

18:                                               ; preds = %4
  store i32 -2, ptr %5, align 4
  br label %122

19:                                               ; preds = %4
  store i32 0, ptr %10, align 4
  %20 = load ptr, ptr %8, align 8
  %21 = call noundef ptr @_ZNK6Symbol5bytesEv(ptr noundef nonnull align 4 dereferenceable(8) %20)
  store ptr %21, ptr %11, align 8
  %22 = load ptr, ptr %8, align 8
  %23 = call noundef i32 @_ZNK6Symbol11utf8_lengthEv(ptr noundef nonnull align 4 dereferenceable(8) %22)
  store i32 %23, ptr %12, align 4
  %24 = load i32, ptr %12, align 4
  %25 = icmp ugt i32 %24, 0
  br i1 %25, label %26, label %118

26:                                               ; preds = %19
  %27 = load ptr, ptr %11, align 8
  %28 = getelementptr inbounds i8, ptr %27, i32 1
  store ptr %28, ptr %11, align 8
  %29 = load i8, ptr %27, align 1
  %30 = sext i8 %29 to i32
  %31 = icmp eq i32 %30, 40
  br i1 %31, label %32, label %118

32:                                               ; preds = %26
  %33 = load i32, ptr %12, align 4
  %34 = add i32 %33, -1
  store i32 %34, ptr %12, align 4
  %35 = load ptr, ptr %11, align 8
  %36 = load i32, ptr %12, align 4
  %37 = load ptr, ptr %9, align 8
  %38 = call noundef ptr @_ZNK15ClassFileParser25skip_over_field_signatureEPKcbjP10JavaThread(ptr noundef nonnull align 8 dereferenceable(440) %14, ptr noundef %35, i1 noundef zeroext false, i32 noundef %36, ptr noundef %37)
  store ptr %38, ptr %13, align 8
  %39 = load ptr, ptr %9, align 8
  %40 = call noundef zeroext i1 @_ZNK12ThreadShadow21has_pending_exceptionEv(ptr noundef nonnull align 8 dereferenceable(28) %39)
  br i1 %40, label %41, label %42

41:                                               ; preds = %32
  store i32 0, ptr %5, align 4
  br label %122

42:                                               ; preds = %32
  br label %43

43:                                               ; preds = %82, %42
  %44 = load i32, ptr %12, align 4
  %45 = icmp ugt i32 %44, 0
  br i1 %45, label %46, label %49

46:                                               ; preds = %43
  %47 = load ptr, ptr %13, align 8
  %48 = icmp ne ptr %47, null
  br label %49

49:                                               ; preds = %46, %43
  %50 = phi i1 [ false, %43 ], [ %48, %46 ]
  br i1 %50, label %51, label %83

51:                                               ; preds = %49
  %52 = load i32, ptr %10, align 4
  %53 = add i32 %52, 1
  store i32 %53, ptr %10, align 4
  %54 = load ptr, ptr %11, align 8
  %55 = getelementptr inbounds i8, ptr %54, i64 0
  %56 = load i8, ptr %55, align 1
  %57 = sext i8 %56 to i32
  %58 = icmp eq i32 %57, 74
  br i1 %58, label %65, label %59

59:                                               ; preds = %51
  %60 = load ptr, ptr %11, align 8
  %61 = getelementptr inbounds i8, ptr %60, i64 0
  %62 = load i8, ptr %61, align 1
  %63 = sext i8 %62 to i32
  %64 = icmp eq i32 %63, 68
  br i1 %64, label %65, label %68

65:                                               ; preds = %59, %51
  %66 = load i32, ptr %10, align 4
  %67 = add i32 %66, 1
  store i32 %67, ptr %10, align 4
  br label %68

68:                                               ; preds = %65, %59
  %69 = load ptr, ptr %13, align 8
  %70 = load ptr, ptr %11, align 8
  %71 = call noundef i32 @_Z20pointer_delta_as_intIcEiPVKT_S2_(ptr noundef %69, ptr noundef %70)
  %72 = load i32, ptr %12, align 4
  %73 = sub i32 %72, %71
  store i32 %73, ptr %12, align 4
  %74 = load ptr, ptr %13, align 8
  store ptr %74, ptr %11, align 8
  %75 = load ptr, ptr %11, align 8
  %76 = load i32, ptr %12, align 4
  %77 = load ptr, ptr %9, align 8
  %78 = call noundef ptr @_ZNK15ClassFileParser25skip_over_field_signatureEPKcbjP10JavaThread(ptr noundef nonnull align 8 dereferenceable(440) %14, ptr noundef %75, i1 noundef zeroext false, i32 noundef %76, ptr noundef %77)
  store ptr %78, ptr %13, align 8
  %79 = load ptr, ptr %9, align 8
  %80 = call noundef zeroext i1 @_ZNK12ThreadShadow21has_pending_exceptionEv(ptr noundef nonnull align 8 dereferenceable(28) %79)
  br i1 %80, label %81, label %82

81:                                               ; preds = %68
  store i32 0, ptr %5, align 4
  br label %122

82:                                               ; preds = %68
  br label %43, !llvm.loop !10

83:                                               ; preds = %49
  %84 = load i32, ptr %12, align 4
  %85 = icmp ugt i32 %84, 0
  br i1 %85, label %86, label %117

86:                                               ; preds = %83
  %87 = load ptr, ptr %11, align 8
  %88 = getelementptr inbounds i8, ptr %87, i32 1
  store ptr %88, ptr %11, align 8
  %89 = load i8, ptr %87, align 1
  %90 = sext i8 %89 to i32
  %91 = icmp eq i32 %90, 41
  br i1 %91, label %92, label %117

92:                                               ; preds = %86
  %93 = load i32, ptr %12, align 4
  %94 = add i32 %93, -1
  store i32 %94, ptr %12, align 4
  %95 = load ptr, ptr %11, align 8
  %96 = load i32, ptr %12, align 4
  %97 = load ptr, ptr %9, align 8
  %98 = call noundef ptr @_ZNK15ClassFileParser25skip_over_field_signatureEPKcbjP10JavaThread(ptr noundef nonnull align 8 dereferenceable(440) %14, ptr noundef %95, i1 noundef zeroext true, i32 noundef %96, ptr noundef %97)
  store ptr %98, ptr %13, align 8
  %99 = load ptr, ptr %9, align 8
  %100 = call noundef zeroext i1 @_ZNK12ThreadShadow21has_pending_exceptionEv(ptr noundef nonnull align 8 dereferenceable(28) %99)
  br i1 %100, label %101, label %102

101:                                              ; preds = %92
  store i32 0, ptr %5, align 4
  br label %122

102:                                              ; preds = %92
  %103 = load ptr, ptr %13, align 8
  %104 = icmp ne ptr %103, null
  br i1 %104, label %105, label %116

105:                                              ; preds = %102
  %106 = load i32, ptr %12, align 4
  %107 = sext i32 %106 to i64
  %108 = load ptr, ptr %13, align 8
  %109 = load ptr, ptr %11, align 8
  %110 = ptrtoint ptr %108 to i64
  %111 = ptrtoint ptr %109 to i64
  %112 = sub i64 %110, %111
  %113 = icmp eq i64 %107, %112
  br i1 %113, label %114, label %116

114:                                              ; preds = %105
  %115 = load i32, ptr %10, align 4
  store i32 %115, ptr %5, align 4
  br label %122

116:                                              ; preds = %105, %102
  br label %117

117:                                              ; preds = %116, %86, %83
  br label %118

118:                                              ; preds = %117, %26, %19
  %119 = load ptr, ptr %7, align 8
  %120 = load ptr, ptr %8, align 8
  %121 = load ptr, ptr %9, align 8
  call void @_ZNK15ClassFileParser21throwIllegalSignatureEPKcPK6SymbolS4_P10JavaThread(ptr noundef nonnull align 8 dereferenceable(440) %14, ptr noundef @.str.17, ptr noundef %119, ptr noundef %120, ptr noundef %121)
  store i32 0, ptr %5, align 4
  br label %122

122:                                              ; preds = %118, %114, %101, %81, %41, %18
  %123 = load i32, ptr %5, align 4
  ret i32 %123
}