; Function Attrs: mustprogress nounwind uwtable
define hidden noundef i32 @_ZNK15ClassFileParser29verify_legal_method_signatureEPK6SymbolS2_P10JavaThread(ptr noundef nonnull align 8 dereferenceable(440) %0, ptr noundef %1, ptr noundef %2, ptr noundef %3) local_unnamed_addr #1 align 2 {
  %5 = getelementptr inbounds i8, ptr %0, i64 424
  %6 = load i8, ptr %5, align 8
  %7 = trunc i8 %6 to i1
  br i1 %7, label %8, label %.loopexit

8:                                                ; preds = %4
  %9 = getelementptr inbounds i8, ptr %2, i64 4
  %10 = load i16, ptr %9, align 4
  %11 = zext i16 %10 to i32
  %.not = icmp eq i16 %10, 0
  br i1 %.not, label %50, label %12

12:                                               ; preds = %8
  %13 = getelementptr inbounds i8, ptr %2, i64 6
  %14 = load i8, ptr %13, align 1
  %15 = icmp eq i8 %14, 40
  br i1 %15, label %16, label %50

16:                                               ; preds = %12
  %17 = getelementptr inbounds i8, ptr %2, i64 7
  %18 = add nsw i32 %11, -1
  %19 = tail call noundef ptr @_ZNK15ClassFileParser25skip_over_field_signatureEPKcbjP10JavaThread(ptr noundef nonnull align 8 dereferenceable(440) %0, ptr noundef nonnull %17, i1 noundef zeroext false, i32 noundef %18, ptr noundef %3)
  %20 = getelementptr inbounds i8, ptr %3, i64 8
  %21 = load ptr, ptr %20, align 8
  %.not48 = icmp eq ptr %21, null
  br i1 %.not48, label %.preheader, label %.loopexit

.preheader:                                       ; preds = %16, %25
  %.041 = phi i32 [ %.1, %25 ], [ 0, %16 ]
  %.040 = phi ptr [ %.0, %25 ], [ %17, %16 ]
  %.039 = phi i32 [ %31, %25 ], [ %18, %16 ]
  %.0 = phi ptr [ %32, %25 ], [ %19, %16 ]
  %22 = icmp ne i32 %.039, 0
  %23 = icmp ne ptr %.0, null
  %24 = and i1 %22, %23
  br i1 %24, label %25, label %34

25:                                               ; preds = %.preheader
  %26 = load i8, ptr %.040, align 1
  %27 = icmp eq i8 %26, 74
  %28 = icmp eq i8 %26, 68
  %or.cond = or i1 %27, %28
  %.1.v = select i1 %or.cond, i32 2, i32 1
  %.1 = add i32 %.1.v, %.041
  %29 = ptrtoint ptr %.0 to i64
  %30 = ptrtoint ptr %.040 to i64
  %.neg = sub i64 %30, %29
  %.neg50 = trunc i64 %.neg to i32
  %31 = add i32 %.039, %.neg50
  %32 = tail call noundef ptr @_ZNK15ClassFileParser25skip_over_field_signatureEPKcbjP10JavaThread(ptr noundef nonnull align 8 dereferenceable(440) %0, ptr noundef nonnull %.0, i1 noundef zeroext false, i32 noundef %31, ptr noundef nonnull %3)
  %33 = load ptr, ptr %20, align 8
  %.not51 = icmp eq ptr %33, null
  br i1 %.not51, label %.preheader, label %.loopexit, !llvm.loop !12

34:                                               ; preds = %.preheader
  br i1 %22, label %35, label %50

35:                                               ; preds = %34
  %36 = getelementptr inbounds i8, ptr %.040, i64 1
  %37 = load i8, ptr %.040, align 1
  %38 = icmp eq i8 %37, 41
  br i1 %38, label %39, label %50

39:                                               ; preds = %35
  %40 = add i32 %.039, -1
  %41 = tail call noundef ptr @_ZNK15ClassFileParser25skip_over_field_signatureEPKcbjP10JavaThread(ptr noundef nonnull align 8 dereferenceable(440) %0, ptr noundef nonnull %36, i1 noundef zeroext true, i32 noundef %40, ptr noundef nonnull %3)
  %42 = load ptr, ptr %20, align 8
  %.not49 = icmp eq ptr %42, null
  br i1 %.not49, label %43, label %.loopexit

43:                                               ; preds = %39
  %.not46 = icmp eq ptr %41, null
  br i1 %.not46, label %50, label %44

44:                                               ; preds = %43
  %45 = sext i32 %40 to i64
  %46 = ptrtoint ptr %41 to i64
  %47 = ptrtoint ptr %36 to i64
  %48 = sub i64 %46, %47
  %49 = icmp eq i64 %48, %45
  br i1 %49, label %.loopexit, label %50

50:                                               ; preds = %34, %35, %44, %43, %12, %8
  tail call void @_ZNK15ClassFileParser21throwIllegalSignatureEPKcPK6SymbolS4_P10JavaThread(ptr noundef nonnull align 8 dereferenceable(440) %0, ptr noundef nonnull @.str.17, ptr noundef %1, ptr noundef nonnull %2, ptr noundef %3)
  br label %.loopexit

.loopexit:                                        ; preds = %25, %44, %39, %16, %4, %50
  %.042 = phi i32 [ 0, %50 ], [ -2, %4 ], [ 0, %16 ], [ 0, %39 ], [ %.041, %44 ], [ 0, %25 ]
  ret i32 %.042
}